target datalayout = "e-m:e-p270:32:32-p271:32:32-p272:64:64-i64:64-i128:128-f80:128-n8:16:32:64-S128"
target triple = "x86_64-pc-linux-gnu"

%struct.DHT = type { i32, i32, ptr, [3 x i16], [3 x float], ptr, ptr }
%class.LibRaw = type { ptr, %struct.libraw_data_t, ptr, %struct.libraw_internal_data_t, [2048 x %struct.decode], ptr, ptr, [10 x %struct.tiff_ifd_t], %class.libraw_memmgr, %struct.libraw_callbacks_t, { i64, i64 }, { i64, i64 }, { i64, i64 }, ptr, ptr, ptr, i64, ptr, ptr, ptr, ptr }
%struct.libraw_data_t = type { ptr, %struct.libraw_image_sizes_t, %struct.libraw_iparams_t, %struct.libraw_lensinfo_t, %struct.libraw_makernotes_t, %struct.libraw_shootinginfo_t, %struct.libraw_output_params_t, %struct.libraw_raw_unpack_params_t, i32, i32, %struct.libraw_colordata_t, %struct.libraw_imgother_t, %struct.libraw_thumbnail_t, %struct.libraw_thumbnail_list_t, %struct.libraw_rawdata_t, ptr }
%struct.libraw_image_sizes_t = type { i16, i16, i16, i16, i16, i16, i16, i16, i32, double, i32, [8 x [4 x i32]], i16, [2 x %struct.libraw_raw_inset_crop_t] }
%struct.libraw_raw_inset_crop_t = type { i16, i16, i16, i16 }
%struct.libraw_iparams_t = type { [4 x i8], [64 x i8], [64 x i8], [64 x i8], [64 x i8], [64 x i8], i32, i32, i32, i32, i32, i32, [6 x [6 x i8]], [6 x [6 x i8]], [5 x i8], i32, ptr }
%struct.libraw_lensinfo_t = type { float, float, float, float, float, [128 x i8], [128 x i8], [128 x i8], [128 x i8], i16, %struct.libraw_nikonlens_t, %struct.libraw_dnglens_t, %struct.libraw_makernotes_lens_t }
%struct.libraw_nikonlens_t = type { float, i8, i8, i8, i8 }
%struct.libraw_dnglens_t = type { float, float, float, float }
%struct.libraw_makernotes_lens_t = type { i64, [128 x i8], i16, i16, i64, i16, i16, [64 x i8], i16, [16 x i8], [16 x i8], float, float, float, float, float, float, float, float, float, float, float, float, float, float, float, i64, [128 x i8], i64, [128 x i8], i64, [128 x i8], i16, float }
%struct.libraw_makernotes_t = type { %struct.libraw_canon_makernotes_t, %struct.libraw_nikon_makernotes_t, %struct.libraw_hasselblad_makernotes_t, %struct.libraw_fuji_info_t, %struct.libraw_olympus_makernotes_t, %struct.libraw_sony_info_t, %struct.libraw_kodak_makernotes_t, %struct.libraw_panasonic_makernotes_t, %struct.libraw_pentax_makernotes_t, %struct.libraw_p1_makernotes_t, %struct.libraw_ricoh_makernotes_t, %struct.libraw_samsung_makernotes_t, %struct.libraw_metadata_common_t }
%struct.libraw_canon_makernotes_t = type { i32, i32, i32, i32, [4 x i32], i32, [4 x i32], i16, i16, i8, i16, i16, i16, i16, i16, i16, i16, i16, i16, i16, i16, i16, i16, i32, float, i16, i16, i16, i32, i16, i32, i32, i16, i32, %struct.libraw_area_t, %struct.libraw_area_t, %struct.libraw_area_t, %struct.libraw_area_t, %struct.libraw_area_t, [2 x i16] }
%struct.libraw_area_t = type { i16, i16, i16, i16 }
%struct.libraw_nikon_makernotes_t = type { double, i16, i16, [7 x i8], i8, i8, [13 x i8], [20 x i8], [4 x i8], [4 x i8], [4 x i8], i8, i8, i8, i8, i8, [2 x i8], i8, i8, i8, i8, i8, [4 x i8], [4 x i8], i8, i16, i32, i32, i32, i32, [4 x double], i8, i8, i8, i32, i32, i32, i8, [4 x i16], i16, %struct.libraw_sensor_highspeed_crop_t, i16, i16, i16, i32, [20 x i8], [20 x i8], i32, i16, double, double, double }
%struct.libraw_sensor_highspeed_crop_t = type { i16, i16, i16, i16 }
%struct.libraw_hasselblad_makernotes_t = type { i32, double, [8 x i8], [64 x i8], [64 x i8], i32, i32, i32, i32, [32 x i8], [64 x i8], i32, [2 x i32], [2 x i32], [4 x [3 x double]] }
%struct.libraw_fuji_info_t = type { float, i16, i16, i16, i16, i16, i16, i16, i16, [33 x i8], [33 x i8], float, i16, i16, [2 x i16], i16, i32, i32, i16, [3 x i16], i16, i16, i16, i16, i16, i32, i16, [13 x i8], [5 x i8], [5 x i8], i32, i16, i32, i16, [9 x i16], [32 x i32], i32, i32, i32, [2 x float], i32 }
%struct.libraw_olympus_makernotes_t = type { [6 x i8], i16, [2 x i32], [5 x i16], i16, [2 x i16], i16, i16, [64 x i32], [5 x double], i16, i8, [3 x i16], [3 x i32], i16, i16, i16, i16, double, [4 x i16], [2 x i32], i8, i32, i16, i16 }
%struct.libraw_sony_info_t = type { i16, i8, i8, i32, i8, i32, i8, i8, i16, [2 x i16], i8, i8, i16, [10 x i8], i8, i8, [4 x i16], i16, i8, i8, i8, i16, i32, i16, [2 x i16], i16, i16, i16, i16, i16, i16, i16, i32, float, i16, i32, i32, i16, [20 x i8], i32, i16, i32, i8, i8, i16, i16, i16, i16, i16, i16, i16, i16, i16, i32, i16, [16 x i8], float }
%struct.libraw_kodak_makernotes_t = type { i16, i16, i16, i16, i16, i16, [3 x [3 x float]], [3 x [3 x float]], [3 x [3 x float]], [3 x [3 x float]], [3 x [3 x float]], [3 x [3 x float]], i16, i16, i16, i16, float, float }
%struct.libraw_panasonic_makernotes_t = type { i16, i16, [8 x float], i32, float, [3 x i32], i16, i16, i32, i32 }
%struct.libraw_pentax_makernotes_t = type { [4 x i8], [2 x i16], [2 x i16], i16, i32, i32, i16, i16, i8, i8, i16 }
%struct.libraw_p1_makernotes_t = type { [64 x i8], [64 x i8], [256 x i8], [64 x i8] }
%struct.libraw_ricoh_makernotes_t = type { i16, [2 x i32], [2 x i32], i16, i32, i32, i32, i32, i16, i16, i16, i16, i16, i16, double, double }
%struct.libraw_samsung_makernotes_t = type { [4 x i32], [4 x i32], [2 x i32], [11 x i32], double, i32, [32 x i8] }
%struct.libraw_metadata_common_t = type { float, float, float, float, float, float, float, float, float, float, float, float, float, float, float, float, i16, [128 x i8], float, [4 x %struct.libraw_afinfo_item_t], i32 }
%struct.libraw_afinfo_item_t = type { i32, i16, i32, i32, ptr }
%struct.libraw_shootinginfo_t = type { i16, i16, i16, i16, i16, i16, i16, [64 x i8], [64 x i8] }
%struct.libraw_output_params_t = type { [4 x i32], [4 x i32], [4 x double], [6 x double], [4 x float], float, float, i32, i32, i32, i32, i32, i32, i32, ptr, ptr, ptr, ptr, i32, i32, i32, i32, i32, i32, [4 x i32], i32, i32, float, float, i32, i32, i32, i32, i32, i32, i32, i32, float, float, i32, i32 }
%struct.libraw_raw_unpack_params_t = type { i32, i32, i32, i32, i32, i32, i32, float, [5 x i8], ptr }
%struct.libraw_colordata_t = type { [65536 x i16], [4104 x i32], i32, i32, i32, [4 x i64], float, float, [8 x [8 x i16]], [4 x float], [4 x float], [3 x [4 x float]], [3 x [4 x float]], [3 x [4 x float]], [4 x [3 x float]], %struct.ph1_t, float, float, [64 x i8], [64 x i8], [64 x i8], [64 x i8], [17 x i8], [64 x i8], ptr, i32, [8 x i32], [2 x %struct.libraw_dng_color_t], %struct.libraw_dng_levels_t, [256 x [4 x i32]], [64 x [5 x float]], i32, [2 x %struct.libraw_P1_color_t], i32, i32 }
%struct.ph1_t = type { i32, i32, i32, i32, i32, i32, i32, i32, float }
%struct.libraw_dng_color_t = type { i32, i16, [4 x [4 x float]], [4 x [3 x float]], [3 x [4 x float]] }
%struct.libraw_dng_levels_t = type { i32, [4104 x i32], i32, [4104 x float], float, [4 x i32], [4 x i16], [4 x float], i32, [4 x float], [4 x float], float, float }
%struct.libraw_P1_color_t = type { [9 x float] }
%struct.libraw_imgother_t = type { float, float, float, float, i64, i32, [32 x i32], %struct.libraw_gps_info_t, [512 x i8], [64 x i8], [4 x float] }
%struct.libraw_gps_info_t = type { [3 x float], [3 x float], [3 x float], float, i8, i8, i8, i8, i8 }
%struct.libraw_thumbnail_t = type { i32, i16, i16, i32, i32, ptr }
%struct.libraw_thumbnail_list_t = type { i32, [8 x %struct.libraw_thumbnail_item_t] }
%struct.libraw_thumbnail_item_t = type { i32, i16, i16, i16, i32, i32, i64 }
%struct.libraw_rawdata_t = type { ptr, ptr, ptr, ptr, ptr, ptr, ptr, ptr, ptr, %struct.libraw_iparams_t, %struct.libraw_image_sizes_t, %struct.libraw_internal_output_params_t, %struct.libraw_colordata_t }
%struct.libraw_internal_output_params_t = type { i32, i32, i32, i16, i16 }
%struct.libraw_internal_data_t = type { %struct.internal_data_t, %struct.libraw_internal_output_params_t, %struct.output_data_t, %struct.identify_data_t, %struct.unpacker_data_t }
%struct.internal_data_t = type { ptr, ptr, i32, ptr, i64, i64, [4 x i32] }
%struct.output_data_t = type { ptr, ptr }
%struct.identify_data_t = type { i32, i64, i64, i32, i32, i32 }
%struct.unpacker_data_t = type { i16, [4 x i16], [3 x i16], i32, i64, i64, i64, i64, i64, i64, i32, i32, i32, i32, i32, i32, i32, i32, i32, i32, i32, i32, i32, i32, i32, i32, i32, i64, i32, i32, i32, i32, i32, i32, i32, i32, i32, %struct.pana8_tags_t, [16 x %struct.crx_data_header_t], i32, i32, i16, i16, i32, i32, i32, i32, i32, i32, i32, [20 x i32], i16 }
%struct.pana8_tags_t = type { [6 x i32], [6 x i16], i16, [4 x i16], [17 x i16], [17 x i16], [17 x i16], i16, i16, [5 x i64], [5 x i16], [5 x i32], [5 x i16], [5 x i16] }
%struct.crx_data_header_t = type { i32, i32, i32, i32, i32, i32, i32, i32, i32, i32, i32, i32, i32, i32, i32, i64, i32, ptr, i32, i32, i32, ptr, i32, ptr }
%struct.decode = type { [2 x ptr], i32 }
%struct.tiff_ifd_t = type { i32, i32, i32, i32, i32, i32, i32, i32, i32, i32, i32, i32, i32, i32, i32, ptr, i32, ptr, i32, i32, i32, i32, i32, i32, i32, float, i64, i64, i32, [2 x %struct.libraw_dng_color_t], %struct.libraw_dng_levels_t, i32 }
%class.libraw_memmgr = type <{ ptr, i32, [4 x i8] }>
%struct.libraw_callbacks_t = type { ptr, ptr, ptr, ptr, ptr, ptr, ptr, ptr, ptr, ptr, ptr, ptr, ptr, ptr, ptr, ptr, ptr }

; Function Attrs: inlinehint mustprogress nounwind uwtable
define linkonce_odr noundef i32 @_ZN3DHT9nr_offsetEii(ptr noundef nonnull align 8 dereferenceable(56) %0, i32 noundef %1, i32 noundef %2) #4 comdat align 2 {
  %4 = alloca ptr, align 8
  %5 = alloca i32, align 4
  %6 = alloca i32, align 4
  store ptr %0, ptr %4, align 8, !tbaa !6
  store i32 %1, ptr %5, align 4, !tbaa !81
  store i32 %2, ptr %6, align 4, !tbaa !81
  %7 = load ptr, ptr %4, align 8
  %8 = load i32, ptr %5, align 4, !tbaa !81
  %9 = getelementptr inbounds nuw %struct.DHT, ptr %7, i32 0, i32 1
  %10 = load i32, ptr %9, align 4, !tbaa !79
  %11 = mul nsw i32 %8, %10
  %12 = load i32, ptr %6, align 4, !tbaa !81
  %13 = add nsw i32 %11, %12
  ret i32 %13
}

; Function Attrs: mustprogress nounwind uwtable
define void @_ZN3DHT13copy_to_imageEv(ptr noundef nonnull align 8 dereferenceable(56) %0) #5 align 2 {
  %2 = alloca ptr, align 8
  %3 = alloca i32, align 4
  %4 = alloca i32, align 4
  %5 = alloca i32, align 4
  %6 = alloca i32, align 4
  store ptr %0, ptr %2, align 8, !tbaa !6
  %7 = load ptr, ptr %2, align 8
  call void @llvm.lifetime.start.p0(i64 4, ptr %3) #11
  %8 = getelementptr inbounds nuw %struct.DHT, ptr %7, i32 0, i32 5
  %9 = load ptr, ptr %8, align 8, !tbaa !13
  %10 = getelementptr inbounds nuw %class.LibRaw, ptr %9, i32 0, i32 1
  %11 = getelementptr inbounds nuw %struct.libraw_data_t, ptr %10, i32 0, i32 1
  %12 = getelementptr inbounds nuw %struct.libraw_image_sizes_t, ptr %11, i32 0, i32 7
  %13 = load i16, ptr %12, align 2, !tbaa !78
  %14 = zext i16 %13 to i32
  store i32 %14, ptr %3, align 4, !tbaa !81
  call void @llvm.lifetime.start.p0(i64 4, ptr %4) #11
  store i32 0, ptr %4, align 4, !tbaa !81
  br label %15

15:                                               ; preds = %125, %1
  %16 = load i32, ptr %4, align 4, !tbaa !81
  %17 = getelementptr inbounds nuw %struct.DHT, ptr %7, i32 0, i32 5
  %18 = load ptr, ptr %17, align 8, !tbaa !13
  %19 = getelementptr inbounds nuw %class.LibRaw, ptr %18, i32 0, i32 1
  %20 = getelementptr inbounds nuw %struct.libraw_data_t, ptr %19, i32 0, i32 1
  %21 = getelementptr inbounds nuw %struct.libraw_image_sizes_t, ptr %20, i32 0, i32 6
  %22 = load i16, ptr %21, align 4, !tbaa !18
  %23 = zext i16 %22 to i32
  %24 = icmp slt i32 %16, %23
  br i1 %24, label %26, label %25

25:                                               ; preds = %15
  store i32 2, ptr %5, align 4
  call void @llvm.lifetime.end.p0(i64 4, ptr %4) #11
  br label %128

26:                                               ; preds = %15
  call void @llvm.lifetime.start.p0(i64 4, ptr %6) #11
  store i32 0, ptr %6, align 4, !tbaa !81
  br label %27

27:                                               ; preds = %121, %26
  %28 = load i32, ptr %6, align 4, !tbaa !81
  %29 = load i32, ptr %3, align 4, !tbaa !81
  %30 = icmp slt i32 %28, %29
  br i1 %30, label %32, label %31

31:                                               ; preds = %27
  store i32 5, ptr %5, align 4
  call void @llvm.lifetime.end.p0(i64 4, ptr %6) #11
  br label %124

32:                                               ; preds = %27
  %33 = getelementptr inbounds nuw %struct.DHT, ptr %7, i32 0, i32 2
  %34 = load ptr, ptr %33, align 8, !tbaa !80
  %35 = load i32, ptr %4, align 4, !tbaa !81
  %36 = add nsw i32 %35, 4
  %37 = load i32, ptr %6, align 4, !tbaa !81
  %38 = add nsw i32 %37, 4
  %39 = call noundef i32 @_ZN3DHT9nr_offsetEii(ptr noundef nonnull align 8 dereferenceable(56) %7, i32 noundef %36, i32 noundef %38) #11
  %40 = sext i32 %39 to i64
  %41 = getelementptr inbounds [3 x float], ptr %34, i64 %40
  %42 = getelementptr inbounds [3 x float], ptr %41, i64 0, i64 0
  %43 = load float, ptr %42, align 4, !tbaa !85
  %44 = fptoui float %43 to i16
  %45 = getelementptr inbounds nuw %struct.DHT, ptr %7, i32 0, i32 5
  %46 = load ptr, ptr %45, align 8, !tbaa !13
  %47 = getelementptr inbounds nuw %class.LibRaw, ptr %46, i32 0, i32 1
  %48 = getelementptr inbounds nuw %struct.libraw_data_t, ptr %47, i32 0, i32 0
  %49 = load ptr, ptr %48, align 8, !tbaa !84
  %50 = load i32, ptr %4, align 4, !tbaa !81
  %51 = load i32, ptr %3, align 4, !tbaa !81
  %52 = mul nsw i32 %50, %51
  %53 = load i32, ptr %6, align 4, !tbaa !81
  %54 = add nsw i32 %52, %53
  %55 = sext i32 %54 to i64
  %56 = getelementptr inbounds [4 x i16], ptr %49, i64 %55
  %57 = getelementptr inbounds [4 x i16], ptr %56, i64 0, i64 0
  store i16 %44, ptr %57, align 2, !tbaa !83
  %58 = getelementptr inbounds nuw %struct.DHT, ptr %7, i32 0, i32 2
  %59 = load ptr, ptr %58, align 8, !tbaa !80
  %60 = load i32, ptr %4, align 4, !tbaa !81
  %61 = add nsw i32 %60, 4
  %62 = load i32, ptr %6, align 4, !tbaa !81
  %63 = add nsw i32 %62, 4
  %64 = call noundef i32 @_ZN3DHT9nr_offsetEii(ptr noundef nonnull align 8 dereferenceable(56) %7, i32 noundef %61, i32 noundef %63) #11
  %65 = sext i32 %64 to i64
  %66 = getelementptr inbounds [3 x float], ptr %59, i64 %65
  %67 = getelementptr inbounds [3 x float], ptr %66, i64 0, i64 2
  %68 = load float, ptr %67, align 4, !tbaa !85
  %69 = fptoui float %68 to i16
  %70 = getelementptr inbounds nuw %struct.DHT, ptr %7, i32 0, i32 5
  %71 = load ptr, ptr %70, align 8, !tbaa !13
  %72 = getelementptr inbounds nuw %class.LibRaw, ptr %71, i32 0, i32 1
  %73 = getelementptr inbounds nuw %struct.libraw_data_t, ptr %72, i32 0, i32 0
  %74 = load ptr, ptr %73, align 8, !tbaa !84
  %75 = load i32, ptr %4, align 4, !tbaa !81
  %76 = load i32, ptr %3, align 4, !tbaa !81
  %77 = mul nsw i32 %75, %76
  %78 = load i32, ptr %6, align 4, !tbaa !81
  %79 = add nsw i32 %77, %78
  %80 = sext i32 %79 to i64
  %81 = getelementptr inbounds [4 x i16], ptr %74, i64 %80
  %82 = getelementptr inbounds [4 x i16], ptr %81, i64 0, i64 2
  store i16 %69, ptr %82, align 2, !tbaa !83
  %83 = getelementptr inbounds nuw %struct.DHT, ptr %7, i32 0, i32 2
  %84 = load ptr, ptr %83, align 8, !tbaa !80
  %85 = load i32, ptr %4, align 4, !tbaa !81
  %86 = add nsw i32 %85, 4
  %87 = load i32, ptr %6, align 4, !tbaa !81
  %88 = add nsw i32 %87, 4
  %89 = call noundef i32 @_ZN3DHT9nr_offsetEii(ptr noundef nonnull align 8 dereferenceable(56) %7, i32 noundef %86, i32 noundef %88) #11
  %90 = sext i32 %89 to i64
  %91 = getelementptr inbounds [3 x float], ptr %84, i64 %90
  %92 = getelementptr inbounds [3 x float], ptr %91, i64 0, i64 1
  %93 = load float, ptr %92, align 4, !tbaa !85
  %94 = fptoui float %93 to i16
  %95 = getelementptr inbounds nuw %struct.DHT, ptr %7, i32 0, i32 5
  %96 = load ptr, ptr %95, align 8, !tbaa !13
  %97 = getelementptr inbounds nuw %class.LibRaw, ptr %96, i32 0, i32 1
  %98 = getelementptr inbounds nuw %struct.libraw_data_t, ptr %97, i32 0, i32 0
  %99 = load ptr, ptr %98, align 8, !tbaa !84
  %100 = load i32, ptr %4, align 4, !tbaa !81
  %101 = load i32, ptr %3, align 4, !tbaa !81
  %102 = mul nsw i32 %100, %101
  %103 = load i32, ptr %6, align 4, !tbaa !81
  %104 = add nsw i32 %102, %103
  %105 = sext i32 %104 to i64
  %106 = getelementptr inbounds [4 x i16], ptr %99, i64 %105
  %107 = getelementptr inbounds [4 x i16], ptr %106, i64 0, i64 3
  store i16 %94, ptr %107, align 2, !tbaa !83
  %108 = getelementptr inbounds nuw %struct.DHT, ptr %7, i32 0, i32 5
  %109 = load ptr, ptr %108, align 8, !tbaa !13
  %110 = getelementptr inbounds nuw %class.LibRaw, ptr %109, i32 0, i32 1
  %111 = getelementptr inbounds nuw %struct.libraw_data_t, ptr %110, i32 0, i32 0
  %112 = load ptr, ptr %111, align 8, !tbaa !84
  %113 = load i32, ptr %4, align 4, !tbaa !81
  %114 = load i32, ptr %3, align 4, !tbaa !81
  %115 = mul nsw i32 %113, %114
  %116 = load i32, ptr %6, align 4, !tbaa !81
  %117 = add nsw i32 %115, %116
  %118 = sext i32 %117 to i64
  %119 = getelementptr inbounds [4 x i16], ptr %112, i64 %118
  %120 = getelementptr inbounds [4 x i16], ptr %119, i64 0, i64 1
  store i16 %94, ptr %120, align 2, !tbaa !83
  br label %121

121:                                              ; preds = %32
  %122 = load i32, ptr %6, align 4, !tbaa !81
  %123 = add nsw i32 %122, 1
  store i32 %123, ptr %6, align 4, !tbaa !81
  br label %27, !llvm.loop !127

124:                                              ; preds = %31
  br label %125

125:                                              ; preds = %124
  %126 = load i32, ptr %4, align 4, !tbaa !81
  %127 = add nsw i32 %126, 1
  store i32 %127, ptr %4, align 4, !tbaa !81
  br label %15, !llvm.loop !128

128:                                              ; preds = %25
  call void @llvm.lifetime.end.p0(i64 4, ptr %3) #11
  ret void
}