; Function Attrs: mustprogress nofree norecurse nosync nounwind memory(readwrite, inaccessiblemem: none) uwtable
define void @_ZN3DHT13copy_to_imageEv(ptr noundef nonnull readonly align 8 captures(none) dereferenceable(56) %0) local_unnamed_addr #4 align 2 {
  %2 = getelementptr inbounds nuw i8, ptr %0, i64 40
  %3 = load ptr, ptr %2, align 8, !tbaa !87
  %4 = getelementptr inbounds nuw i8, ptr %3, i64 30
  %5 = load i16, ptr %4, align 2, !tbaa !75
  %6 = getelementptr inbounds nuw i8, ptr %3, i64 28
  %7 = load i16, ptr %6, align 4, !tbaa !11
  %.not = icmp eq i16 %7, 0
  br i1 %.not, label %._crit_edge27, label %.preheader.lr.ph

.preheader.lr.ph:                                 ; preds = %1
  %.not28 = icmp eq i16 %5, 0
  %8 = getelementptr inbounds nuw i8, ptr %0, i64 8
  %9 = load ptr, ptr %8, align 8
  br i1 %.not28, label %._crit_edge27, label %.preheader.lr.ph.split.us

.preheader.lr.ph.split.us:                        ; preds = %.preheader.lr.ph
  %10 = getelementptr inbounds nuw i8, ptr %0, i64 4
  %11 = load i32, ptr %10, align 4
  %12 = getelementptr inbounds nuw i8, ptr %3, i64 8
  %13 = load ptr, ptr %12, align 8, !tbaa !80
  %14 = zext i16 %5 to i64
  %wide.trip.count = zext i16 %5 to i64
  br label %.preheader.us

.preheader.us:                                    ; preds = %._crit_edge.us, %.preheader.lr.ph.split.us
  %indvars.iv31 = phi i64 [ %indvars.iv.next32, %._crit_edge.us ], [ 0, %.preheader.lr.ph.split.us ]
  %15 = trunc i64 %indvars.iv31 to i32
  %16 = add nuw nsw i32 %15, 4
  %17 = mul i32 %16, %11
  %invariant.op.us = add i32 %17, 4
  %18 = mul nuw nsw i64 %indvars.iv31, %14
  br label %19

19:                                               ; preds = %.preheader.us, %19
  %indvars.iv = phi i64 [ 0, %.preheader.us ], [ %indvars.iv.next, %19 ]
  %20 = trunc nuw nsw i64 %indvars.iv to i32
  %.reass.us = add i32 %invariant.op.us, %20
  %21 = sext i32 %.reass.us to i64
  %22 = getelementptr inbounds [3 x float], ptr %9, i64 %21
  %23 = load float, ptr %22, align 4, !tbaa !81
  %24 = fptoui float %23 to i16
  %25 = add nuw nsw i64 %indvars.iv, %18
  %26 = getelementptr inbounds nuw [4 x i16], ptr %13, i64 %25
  store i16 %24, ptr %26, align 2, !tbaa !79
  %27 = getelementptr inbounds [3 x float], ptr %9, i64 %21, i64 2
  %28 = load float, ptr %27, align 4, !tbaa !81
  %29 = fptoui float %28 to i16
  %30 = getelementptr inbounds nuw [4 x i16], ptr %13, i64 %25, i64 2
  store i16 %29, ptr %30, align 2, !tbaa !79
  %31 = getelementptr inbounds [3 x float], ptr %9, i64 %21, i64 1
  %32 = load float, ptr %31, align 4, !tbaa !81
  %33 = fptoui float %32 to i16
  %34 = getelementptr inbounds nuw [4 x i16], ptr %13, i64 %25, i64 3
  store i16 %33, ptr %34, align 2, !tbaa !79
  %35 = getelementptr inbounds nuw [4 x i16], ptr %13, i64 %25, i64 1
  store i16 %33, ptr %35, align 2, !tbaa !79
  %indvars.iv.next = add nuw nsw i64 %indvars.iv, 1
  %exitcond.not = icmp eq i64 %indvars.iv.next, %wide.trip.count
  br i1 %exitcond.not, label %._crit_edge.us, label %19, !llvm.loop !124

._crit_edge.us:                                   ; preds = %19
  %indvars.iv.next32 = add nuw nsw i64 %indvars.iv31, 1
  %36 = load i16, ptr %6, align 4, !tbaa !11
  %37 = zext i16 %36 to i64
  %38 = icmp samesign ult i64 %indvars.iv.next32, %37
  br i1 %38, label %.preheader.us, label %._crit_edge27, !llvm.loop !125

._crit_edge27:                                    ; preds = %._crit_edge.us, %.preheader.lr.ph, %1
  ret void
}